Certificate:
    Data:
        Version: 3 (0x2)
        Serial Number: 3 (0x3)
        Signature Algorithm: md5WithRSAEncryption
        Issuer: C=CZ, O=Rokos, CN=CA/Email=michal@rokos.cz
        Validity
            Not Before: Sep 27 14:51:51 2001 GMT
            Not After : Sep 27 14:51:51 2002 GMT
        Subject: C=CZ, O=Rokos, CN=Pokus02
        Subject Public Key Info:
            Public Key Algorithm: rsaEncryption
            RSA Public Key: (1024 bit)
                Modulus (1024 bit):
                    00:c1:aa:c0:e9:ac:d1:49:66:21:01:97:13:51:aa:
                    ff:df:0d:ca:e4:cf:5d:d6:f4:e9:2f:64:89:51:cb:
                    e8:59:bf:8e:dd:20:21:63:e3:75:a5:ad:35:cb:e5:
                    da:c6:ee:12:6d:41:f7:75:37:3a:31:94:a0:b3:3f:
                    c9:69:b6:79:22:ee:03:f0:af:93:fa:21:6f:6c:c5:
                    af:e6:20:3e:5b:2c:fd:03:c1:70:29:b2:da:17:8e:
                    d9:4c:5a:2b:30:8b:08:f1:74:90:0d:31:dd:f8:ed:
                    06:01:3a:23:39:42:56:e7:59:00:9c:79:b5:27:8a:
                    80:b6:6d:90:81:22:d7:0d:59
                Exponent: 65537 (0x10001)
        X509v3 extensions:
            X509v3 Basic Constraints: 
                CA:FALSE
            X509v3 Subject Key Identifier: 
                21:FC:47:57:07:F1:9D:E0:F7:7D:43:24:A1:20:04:F2:1E:B9:D6:C9
            X509v3 Authority Key Identifier: 
                keyid:8B:2F:33:1D:B8:22:FA:A3:DF:B3:C5:45:E3:87:31:19:D4:C1:04:8E
                DirName:/C=CZ/O=Rokos/CN=CA/Email=michal@rokos.cz
                serial:00

    Signature Algorithm: md5WithRSAEncryption
        32:d8:78:d3:37:bb:aa:77:4d:ff:a5:e1:1d:57:4b:06:5f:f3:
        25:62:e8:01:5e:25:c8:d9:4f:3e:02:87:0c:98:56:f8:83:7a:
        cd:b5:2a:99:80:19:43:32:6b:44:5f:78:00:3c:86:aa:3d:5b:
        51:ac:48:6e:84:c2:41:a1:a1:e4:dc:b0:17:9d:7d:09:b5:2a:
        59:34:df:72:34:6d:8d:80:cf:2a:14:07:41:f1:9c:13:ea:ca:
        66:c6:00:75:fa:be:5a:1b:ec:58:b5:ec:e0:1e:0f:49:12:d4:
        f8:01:3e:44:26:6e:f5:fe:f6:56:93:a2:38:26:81:a0:2b:c2:
        54:b7:6a:77:01:cc:5f:7e:98:db:7a:39:15:87:5f:b1:b2:e8:
        7d:19:3d:8b:97:ae:ab:03:a5:76:15:e2:6d:28:e1:a3:4d:a1:
        4f:a0:69:01:0d:03:bf:2f:b6:ec:ae:60:2a:d7:e3:cb:94:4c:
        66:69:e6:8b:4a:50:49:31:c2:3c:e1:d9:bd:ac:bb:11:5a:53:
        10:e4:01:67:5f:16:55:c0:eb:32:15:51:ca:68:a8:3e:5c:51:
        c5:09:e2:ac:7f:25:67:8a:47:59:6a:9b:03:52:b8:b8:d8:35:
        77:2d:72:6a:08:fc:b4:8e:9b:4e:29:a3:8d:e0:b5:83:cf:5c:
        6b:c5:33:69
-----BEGIN CERTIFICATE-----
MIIDEjCCAfqgAwIBAgIBAzANBgkqhkiG9w0BAQQFADBKMQswCQYDVQQGEwJDWjEO
MAwGA1UEChMFUm9rb3MxCzAJBgNVBAMTAkNBMR4wHAYJKoZIhvcNAQkBFg9taWNo
YWxAcm9rb3MuY3owHhcNMDEwOTI3MTQ1MTUxWhcNMDIwOTI3MTQ1MTUxWjAvMQsw
CQYDVQQGEwJDWjEOMAwGA1UEChMFUm9rb3MxEDAOBgNVBAMTB1Bva3VzMDIwgZ8w
DQYJKoZIhvcNAQEBBQADgY0AMIGJAoGBAMGqwOms0UlmIQGXE1Gq/98NyuTPXdb0
6S9kiVHL6Fm/jt0gIWPjdaWtNcvl2sbuEm1B93U3OjGUoLM/yWm2eSLuA/Cvk/oh
b2zFr+YgPlss/QPBcCmy2heO2UxaKzCLCPF0kA0x3fjtBgE6IzlCVudZAJx5tSeK
gLZtkIEi1w1ZAgMBAAGjgaEwgZ4wCQYDVR0TBAIwADAdBgNVHQ4EFgQUIfxHVwfx
neD3fUMkoSAE8h651skwcgYDVR0jBGswaYAUiy8zHbgi+qPfs8VF44cxGdTBBI6h
TqRMMEoxCzAJBgNVBAYTAkNaMQ4wDAYDVQQKEwVSb2tvczELMAkGA1UEAxMCQ0Ex
HjAcBgkqhkiG9w0BCQEWD21pY2hhbEByb2tvcy5jeoIBADANBgkqhkiG9w0BAQQF
AAOCAQEAMth40ze7qndN/6XhHVdLBl/zJWLoAV4lyNlPPgKHDJhW+IN6zbUqmYAZ
QzJrRF94ADyGqj1bUaxIboTCQaGh5NywF519CbUqWTTfcjRtjYDPKhQHQfGcE+rK
ZsYAdfq+WhvsWLXs4B4PSRLU+AE+RCZu9f72VpOiOCaBoCvCVLdqdwHMX36Y23o5
FYdfsbLofRk9i5euqwOldhXibSjho02hT6BpAQ0Dvy+27K5gKtfjy5RMZmnmi0pQ
STHCPOHZvay7EVpTEOQBZ18WVcDrMhVRymioPlxRxQnirH8lZ4pHWWqbA1K4uNg1
dy1yagj8tI6bTimjjeC1g89ca8UzaQ==
-----END CERTIFICATE-----
